; ModuleID = '19/128.c'
source_filename = "19/128.c"
target datalayout = "e-m:e-p270:32:32-p271:32:32-p272:64:64-i64:64-f80:128-n8:16:32:64-S128"
target triple = "x86_64-pc-linux-gnu"

@__const.main.c = private unnamed_addr constant <{ i8, [9 x i8] }> <{ i8 32, [9 x i8] zeroinitializer }>, align 1
@.str = private unnamed_addr constant [3 x i8] c"%s\00", align 1
@.str.1 = private unnamed_addr constant [2 x i8] c"\0A\00", align 1

; Function Attrs: noinline nounwind uwtable
define dso_local i32 @main() #0 {
  %1 = alloca i32, align 4
  %2 = alloca [100 x i8], align 16
  %3 = alloca [100 x i8], align 16
  %4 = alloca [100 x i8], align 16
  %5 = alloca [10 x i8], align 1
  %6 = alloca i32, align 4
  %7 = alloca [100 x i8], align 16
  %8 = alloca [100 x i8], align 16
  %9 = alloca [100 x i8], align 16
  %10 = alloca i32, align 4
  store i32 0, i32* %1, align 4
  %11 = bitcast [10 x i8]* %5 to i8*
  call void @llvm.memcpy.p0i8.p0i8.i64(i8* align 1 %11, i8* align 1 getelementptr inbounds (<{ i8, [9 x i8] }>, <{ i8, [9 x i8] }>* @__const.main.c, i32 0, i32 0), i64 10, i1 false)
  %12 = getelementptr inbounds [100 x i8], [100 x i8]* %2, i64 0, i64 0
  %13 = call i32 (i8*, ...) bitcast (i32 (...)* @gets to i32 (i8*, ...)*)(i8* %12)
  %14 = getelementptr inbounds [100 x i8], [100 x i8]* %3, i64 0, i64 0
  %15 = call i32 (i8*, ...) bitcast (i32 (...)* @gets to i32 (i8*, ...)*)(i8* %14)
  %16 = getelementptr inbounds [100 x i8], [100 x i8]* %4, i64 0, i64 0
  %17 = call i32 (i8*, ...) bitcast (i32 (...)* @gets to i32 (i8*, ...)*)(i8* %16)
  %18 = getelementptr inbounds [100 x i8], [100 x i8]* %7, i64 0, i64 0
  store i8 32, i8* %18, align 16
  %19 = getelementptr inbounds [100 x i8], [100 x i8]* %3, i64 0, i64 0
  %20 = load i8, i8* %19, align 16
  %21 = getelementptr inbounds [100 x i8], [100 x i8]* %7, i64 0, i64 1
  store i8 %20, i8* %21, align 1
  store i32 1, i32* %6, align 4
  br label %22

22:                                               ; preds = %39, %0
  %23 = load i32, i32* %6, align 4
  %24 = sub nsw i32 %23, 1
  %25 = sext i32 %24 to i64
  %26 = getelementptr inbounds [100 x i8], [100 x i8]* %3, i64 0, i64 %25
  %27 = load i8, i8* %26, align 1
  %28 = sext i8 %27 to i32
  %29 = icmp ne i32 %28, 0
  br i1 %29, label %30, label %42

30:                                               ; preds = %22
  %31 = load i32, i32* %6, align 4
  %32 = sext i32 %31 to i64
  %33 = getelementptr inbounds [100 x i8], [100 x i8]* %3, i64 0, i64 %32
  %34 = load i8, i8* %33, align 1
  %35 = load i32, i32* %6, align 4
  %36 = add nsw i32 %35, 1
  %37 = sext i32 %36 to i64
  %38 = getelementptr inbounds [100 x i8], [100 x i8]* %7, i64 0, i64 %37
  store i8 %34, i8* %38, align 1
  br label %39

39:                                               ; preds = %30
  %40 = load i32, i32* %6, align 4
  %41 = add nsw i32 %40, 1
  store i32 %41, i32* %6, align 4
  br label %22

42:                                               ; preds = %22
  %43 = bitcast [100 x i8]* %9 to i8*
  call void @llvm.memset.p0i8.i64(i8* align 16 %43, i8 0, i64 100, i1 false)
  %44 = getelementptr inbounds [100 x i8], [100 x i8]* %2, i64 0, i64 0
  %45 = load i8, i8* %44, align 16
  %46 = getelementptr inbounds [100 x i8], [100 x i8]* %8, i64 0, i64 0
  store i8 %45, i8* %46, align 16
  store i32 1, i32* %6, align 4
  br label %47

47:                                               ; preds = %92, %42
  %48 = load i32, i32* %6, align 4
  %49 = sub nsw i32 %48, 1
  %50 = sext i32 %49 to i64
  %51 = getelementptr inbounds [100 x i8], [100 x i8]* %2, i64 0, i64 %50
  %52 = load i8, i8* %51, align 1
  %53 = sext i8 %52 to i32
  %54 = icmp ne i32 %53, 32
  br i1 %54, label %55, label %63

55:                                               ; preds = %47
  %56 = load i32, i32* %6, align 4
  %57 = sub nsw i32 %56, 1
  %58 = sext i32 %57 to i64
  %59 = getelementptr inbounds [100 x i8], [100 x i8]* %2, i64 0, i64 %58
  %60 = load i8, i8* %59, align 1
  %61 = sext i8 %60 to i32
  %62 = icmp ne i32 %61, 0
  br label %63

63:                                               ; preds = %55, %47
  %64 = phi i1 [ false, %47 ], [ %62, %55 ]
  br i1 %64, label %65, label %95

65:                                               ; preds = %63
  %66 = load i32, i32* %6, align 4
  %67 = sext i32 %66 to i64
  %68 = getelementptr inbounds [100 x i8], [100 x i8]* %2, i64 0, i64 %67
  %69 = load i8, i8* %68, align 1
  %70 = sext i8 %69 to i32
  %71 = icmp eq i32 %70, 32
  br i1 %71, label %79, label %72

72:                                               ; preds = %65
  %73 = load i32, i32* %6, align 4
  %74 = sext i32 %73 to i64
  %75 = getelementptr inbounds [100 x i8], [100 x i8]* %2, i64 0, i64 %74
  %76 = load i8, i8* %75, align 1
  %77 = sext i8 %76 to i32
  %78 = icmp eq i32 %77, 0
  br i1 %78, label %79, label %83

79:                                               ; preds = %72, %65
  %80 = load i32, i32* %6, align 4
  %81 = sext i32 %80 to i64
  %82 = getelementptr inbounds [100 x i8], [100 x i8]* %8, i64 0, i64 %81
  store i8 0, i8* %82, align 1
  br label %91

83:                                               ; preds = %72
  %84 = load i32, i32* %6, align 4
  %85 = sext i32 %84 to i64
  %86 = getelementptr inbounds [100 x i8], [100 x i8]* %2, i64 0, i64 %85
  %87 = load i8, i8* %86, align 1
  %88 = load i32, i32* %6, align 4
  %89 = sext i32 %88 to i64
  %90 = getelementptr inbounds [100 x i8], [100 x i8]* %8, i64 0, i64 %89
  store i8 %87, i8* %90, align 1
  br label %91

91:                                               ; preds = %83, %79
  br label %92

92:                                               ; preds = %91
  %93 = load i32, i32* %6, align 4
  %94 = add nsw i32 %93, 1
  store i32 %94, i32* %6, align 4
  br label %47

95:                                               ; preds = %63
  %96 = getelementptr inbounds [100 x i8], [100 x i8]* %8, i64 0, i64 0
  %97 = getelementptr inbounds [100 x i8], [100 x i8]* %3, i64 0, i64 0
  %98 = call i32 @strcmp(i8* %96, i8* %97) #4
  %99 = icmp eq i32 %98, 0
  br i1 %99, label %100, label %103

100:                                              ; preds = %95
  %101 = getelementptr inbounds [100 x i8], [100 x i8]* %4, i64 0, i64 0
  %102 = call i32 (i8*, ...) @printf(i8* getelementptr inbounds ([3 x i8], [3 x i8]* @.str, i64 0, i64 0), i8* %101)
  br label %106

103:                                              ; preds = %95
  %104 = getelementptr inbounds [100 x i8], [100 x i8]* %8, i64 0, i64 0
  %105 = call i32 (i8*, ...) @printf(i8* getelementptr inbounds ([3 x i8], [3 x i8]* @.str, i64 0, i64 0), i8* %104)
  br label %106

106:                                              ; preds = %103, %100
  store i32 0, i32* %6, align 4
  br label %107

107:                                              ; preds = %203, %106
  %108 = load i32, i32* %6, align 4
  %109 = sext i32 %108 to i64
  %110 = getelementptr inbounds [100 x i8], [100 x i8]* %2, i64 0, i64 %109
  %111 = load i8, i8* %110, align 1
  %112 = sext i8 %111 to i32
  %113 = icmp ne i32 %112, 0
  br i1 %113, label %114, label %206

114:                                              ; preds = %107
  %115 = load i32, i32* %6, align 4
  %116 = sext i32 %115 to i64
  %117 = getelementptr inbounds [100 x i8], [100 x i8]* %2, i64 0, i64 %116
  %118 = load i8, i8* %117, align 1
  %119 = sext i8 %118 to i32
  %120 = icmp eq i32 %119, 32
  br i1 %120, label %121, label %188

121:                                              ; preds = %114
  %122 = load i32, i32* %6, align 4
  %123 = add nsw i32 %122, 1
  store i32 %123, i32* %10, align 4
  br label %124

124:                                              ; preds = %184, %121
  %125 = load i32, i32* %10, align 4
  %126 = sext i32 %125 to i64
  %127 = getelementptr inbounds [100 x i8], [100 x i8]* %2, i64 0, i64 %126
  %128 = load i8, i8* %127, align 1
  %129 = sext i8 %128 to i32
  %130 = icmp ne i32 %129, 32
  br i1 %130, label %131, label %138

131:                                              ; preds = %124
  %132 = load i32, i32* %10, align 4
  %133 = sext i32 %132 to i64
  %134 = getelementptr inbounds [100 x i8], [100 x i8]* %2, i64 0, i64 %133
  %135 = load i8, i8* %134, align 1
  %136 = sext i8 %135 to i32
  %137 = icmp ne i32 %136, 0
  br label %138

138:                                              ; preds = %131, %124
  %139 = phi i1 [ false, %124 ], [ %137, %131 ]
  br i1 %139, label %140, label %187

140:                                              ; preds = %138
  %141 = getelementptr inbounds [100 x i8], [100 x i8]* %8, i64 0, i64 0
  store i8 32, i8* %141, align 16
  %142 = load i32, i32* %10, align 4
  %143 = add nsw i32 %142, 1
  %144 = sext i32 %143 to i64
  %145 = getelementptr inbounds [100 x i8], [100 x i8]* %2, i64 0, i64 %144
  %146 = load i8, i8* %145, align 1
  %147 = sext i8 %146 to i32
  %148 = icmp eq i32 %147, 32
  br i1 %148, label %157, label %149

149:                                              ; preds = %140
  %150 = load i32, i32* %10, align 4
  %151 = add nsw i32 %150, 1
  %152 = sext i32 %151 to i64
  %153 = getelementptr inbounds [100 x i8], [100 x i8]* %2, i64 0, i64 %152
  %154 = load i8, i8* %153, align 1
  %155 = sext i8 %154 to i32
  %156 = icmp eq i32 %155, 0
  br i1 %156, label %157, label %173

157:                                              ; preds = %149, %140
  %158 = load i32, i32* %10, align 4
  %159 = sext i32 %158 to i64
  %160 = getelementptr inbounds [100 x i8], [100 x i8]* %2, i64 0, i64 %159
  %161 = load i8, i8* %160, align 1
  %162 = load i32, i32* %10, align 4
  %163 = load i32, i32* %6, align 4
  %164 = sub nsw i32 %162, %163
  %165 = sext i32 %164 to i64
  %166 = getelementptr inbounds [100 x i8], [100 x i8]* %8, i64 0, i64 %165
  store i8 %161, i8* %166, align 1
  %167 = load i32, i32* %10, align 4
  %168 = load i32, i32* %6, align 4
  %169 = sub nsw i32 %167, %168
  %170 = add nsw i32 %169, 1
  %171 = sext i32 %170 to i64
  %172 = getelementptr inbounds [100 x i8], [100 x i8]* %8, i64 0, i64 %171
  store i8 0, i8* %172, align 1
  br label %183

173:                                              ; preds = %149
  %174 = load i32, i32* %10, align 4
  %175 = sext i32 %174 to i64
  %176 = getelementptr inbounds [100 x i8], [100 x i8]* %2, i64 0, i64 %175
  %177 = load i8, i8* %176, align 1
  %178 = load i32, i32* %10, align 4
  %179 = load i32, i32* %6, align 4
  %180 = sub nsw i32 %178, %179
  %181 = sext i32 %180 to i64
  %182 = getelementptr inbounds [100 x i8], [100 x i8]* %8, i64 0, i64 %181
  store i8 %177, i8* %182, align 1
  br label %183

183:                                              ; preds = %173, %157
  br label %184

184:                                              ; preds = %183
  %185 = load i32, i32* %10, align 4
  %186 = add nsw i32 %185, 1
  store i32 %186, i32* %10, align 4
  br label %124

187:                                              ; preds = %138
  br label %189

188:                                              ; preds = %114
  br label %203

189:                                              ; preds = %187
  %190 = getelementptr inbounds [100 x i8], [100 x i8]* %8, i64 0, i64 0
  %191 = getelementptr inbounds [100 x i8], [100 x i8]* %7, i64 0, i64 0
  %192 = call i32 @strcmp(i8* %190, i8* %191) #4
  %193 = icmp eq i32 %192, 0
  br i1 %193, label %194, label %199

194:                                              ; preds = %189
  %195 = getelementptr inbounds [10 x i8], [10 x i8]* %5, i64 0, i64 0
  %196 = call i32 (i8*, ...) @printf(i8* getelementptr inbounds ([3 x i8], [3 x i8]* @.str, i64 0, i64 0), i8* %195)
  %197 = getelementptr inbounds [100 x i8], [100 x i8]* %4, i64 0, i64 0
  %198 = call i32 (i8*, ...) @printf(i8* getelementptr inbounds ([3 x i8], [3 x i8]* @.str, i64 0, i64 0), i8* %197)
  br label %202

199:                                              ; preds = %189
  %200 = getelementptr inbounds [100 x i8], [100 x i8]* %8, i64 0, i64 0
  %201 = call i32 (i8*, ...) @printf(i8* getelementptr inbounds ([3 x i8], [3 x i8]* @.str, i64 0, i64 0), i8* %200)
  br label %202

202:                                              ; preds = %199, %194
  br label %203

203:                                              ; preds = %202, %188
  %204 = load i32, i32* %6, align 4
  %205 = add nsw i32 %204, 1
  store i32 %205, i32* %6, align 4
  br label %107

206:                                              ; preds = %107
  %207 = call i32 (i8*, ...) @printf(i8* getelementptr inbounds ([2 x i8], [2 x i8]* @.str.1, i64 0, i64 0))
  ret i32 0
}

; Function Attrs: argmemonly nounwind willreturn
declare void @llvm.memcpy.p0i8.p0i8.i64(i8* noalias nocapture writeonly, i8* noalias nocapture readonly, i64, i1 immarg) #1

declare dso_local i32 @gets(...) #2

; Function Attrs: argmemonly nounwind willreturn
declare void @llvm.memset.p0i8.i64(i8* nocapture writeonly, i8, i64, i1 immarg) #1

; Function Attrs: nounwind readonly
declare dso_local i32 @strcmp(i8*, i8*) #3

declare dso_local i32 @printf(i8*, ...) #2


!llvm.module.flags = !{!0}
!llvm.ident = !{!1}

!0 = !{i32 1, !"wchar_size", i32 4}
!1 = !{!"clang version 10.0.0-4ubuntu1 "}
